target datalayout = "e-m:e-p270:32:32-p271:32:32-p272:64:64-i64:64-i128:128-f80:128-n8:16:32:64-S128"
target triple = "x86_64-pc-linux-gnu"

%"union.google::protobuf::internal::EmptyString" = type { %"class.std::__cxx11::basic_string" }
%"class.std::__cxx11::basic_string" = type { %"struct.std::__cxx11::basic_string<char>::_Alloc_hider", i64, %union.anon }
%"struct.std::__cxx11::basic_string<char>::_Alloc_hider" = type { ptr }
%union.anon = type { i64, [8 x i8] }
%"class.google::protobuf::io::CodedInputStream" = type { ptr, ptr, ptr, i32, i32, i32, i8, i8, i32, i32, i32, i32, i32, ptr, ptr }

@_ZN6google8protobuf8internal26fixed_address_empty_stringE = external global %"union.google::protobuf::internal::EmptyString", align 8

; Function Attrs: mustprogress nounwind uwtable
define linkonce_odr void @_ZN6google8protobuf2io16CodedInputStream7AdvanceEi(ptr noundef nonnull align 8 dereferenceable(80) %0, i32 noundef %1) #5 comdat align 2 {
  %3 = alloca ptr, align 8
  %4 = alloca i32, align 4
  store ptr %0, ptr %3, align 8
  store i32 %1, ptr %4, align 4
  %5 = load ptr, ptr %3, align 8
  %6 = load i32, ptr %4, align 4
  %7 = getelementptr inbounds %"class.google::protobuf::io::CodedInputStream", ptr %5, i32 0, i32 0
  %8 = load ptr, ptr %7, align 8
  %9 = sext i32 %6 to i64
  %10 = getelementptr inbounds i8, ptr %8, i64 %9
  store ptr %10, ptr %7, align 8
  ret void
}

; Function Attrs: mustprogress uwtable
define linkonce_odr noundef zeroext i1 @_ZN6google8protobuf2io16CodedInputStream12ReadVarint32EPj(ptr noundef nonnull align 8 dereferenceable(80) %0, ptr noundef %1) #4 comdat align 2 {
  %3 = alloca i1, align 1
  %4 = alloca ptr, align 8
  %5 = alloca ptr, align 8
  %6 = alloca i32, align 4
  %7 = alloca i64, align 8
  store ptr %0, ptr %4, align 8
  store ptr %1, ptr %5, align 8
  %8 = load ptr, ptr %4, align 8
  store i32 0, ptr %6, align 4
  %9 = getelementptr inbounds %"class.google::protobuf::io::CodedInputStream", ptr %8, i32 0, i32 0
  %10 = load ptr, ptr %9, align 8
  %11 = getelementptr inbounds %"class.google::protobuf::io::CodedInputStream", ptr %8, i32 0, i32 1
  %12 = load ptr, ptr %11, align 8
  %13 = icmp ult ptr %10, %12
  %14 = xor i1 %13, true
  %15 = xor i1 %14, true
  br i1 %15, label %16, label %27

16:                                               ; preds = %2
  %17 = getelementptr inbounds %"class.google::protobuf::io::CodedInputStream", ptr %8, i32 0, i32 0
  %18 = load ptr, ptr %17, align 8
  %19 = load i8, ptr %18, align 1
  %20 = zext i8 %19 to i32
  store i32 %20, ptr %6, align 4
  %21 = load i32, ptr %6, align 4
  %22 = icmp ult i32 %21, 128
  br i1 %22, label %23, label %26

23:                                               ; preds = %16
  %24 = load i32, ptr %6, align 4
  %25 = load ptr, ptr %5, align 8
  store i32 %24, ptr %25, align 4
  call void @_ZN6google8protobuf2io16CodedInputStream7AdvanceEi(ptr noundef nonnull align 8 dereferenceable(80) %8, i32 noundef 1)
  store i1 true, ptr %3, align 1
  br label %35

26:                                               ; preds = %16
  br label %27

27:                                               ; preds = %26, %2
  %28 = load i32, ptr %6, align 4
  %29 = call noundef i64 @_ZN6google8protobuf2io16CodedInputStream20ReadVarint32FallbackEj(ptr noundef nonnull align 8 dereferenceable(80) %8, i32 noundef %28)
  store i64 %29, ptr %7, align 8
  %30 = load i64, ptr %7, align 8
  %31 = trunc i64 %30 to i32
  %32 = load ptr, ptr %5, align 8
  store i32 %31, ptr %32, align 4
  %33 = load i64, ptr %7, align 8
  %34 = icmp sge i64 %33, 0
  store i1 %34, ptr %3, align 1
  br label %35

35:                                               ; preds = %27, %23
  %36 = load i1, ptr %3, align 1
  ret i1 %36
}

; Function Attrs: mustprogress nounwind uwtable
define linkonce_odr noundef nonnull align 8 dereferenceable(32) ptr @_ZN6google8protobuf8internal27GetEmptyStringAlreadyInitedB5cxx11Ev() #5 comdat {
  ret ptr @_ZN6google8protobuf8internal26fixed_address_empty_stringE
}

; Function Attrs: mustprogress uwtable
define noundef zeroext i1 @_ZN6google8protobuf8internal14WireFormatLite9ReadBytesEPNS0_2io16CodedInputStreamEPPNSt7__cxx1112basic_stringIcSt11char_traitsIcESaIcEEE(ptr noundef %0, ptr noundef %1) #4 align 2 {
  %3 = alloca ptr, align 8
  %4 = alloca ptr, align 8
  %5 = alloca i32, align 4
  %6 = alloca ptr, align 8
  %7 = alloca ptr, align 8
  store ptr %0, ptr %6, align 8
  store ptr %1, ptr %7, align 8
  %8 = load ptr, ptr %7, align 8
  %9 = load ptr, ptr %8, align 8
  %10 = call noundef nonnull align 8 dereferenceable(32) ptr @_ZN6google8protobuf8internal27GetEmptyStringAlreadyInitedB5cxx11Ev()
  %11 = icmp eq ptr %9, %10
  br i1 %11, label %12, label %15

12:                                               ; preds = %2
  %13 = call noalias noundef nonnull ptr @_Znwm(i64 noundef 32) #12
  call void @_ZNSt7__cxx1112basic_stringIcSt11char_traitsIcESaIcEEC1Ev(ptr noundef nonnull align 8 dereferenceable(32) %13) #3
  %14 = load ptr, ptr %7, align 8
  store ptr %13, ptr %14, align 8
  br label %15

15:                                               ; preds = %12, %2
  %16 = load ptr, ptr %6, align 8
  %17 = load ptr, ptr %7, align 8
  %18 = load ptr, ptr %17, align 8
  store ptr %16, ptr %3, align 8
  store ptr %18, ptr %4, align 8
  %19 = load ptr, ptr %3, align 8
  %20 = call noundef zeroext i1 @_ZN6google8protobuf2io16CodedInputStream12ReadVarint32EPj(ptr noundef nonnull align 8 dereferenceable(80) %19, ptr noundef %5)
  br i1 %20, label %21, label %26

21:                                               ; preds = %15
  %22 = load ptr, ptr %3, align 8
  %23 = load ptr, ptr %4, align 8
  %24 = load i32, ptr %5, align 4
  %25 = call noundef zeroext i1 @_ZN6google8protobuf2io16CodedInputStream10ReadStringEPNSt7__cxx1112basic_stringIcSt11char_traitsIcESaIcEEEi(ptr noundef nonnull align 8 dereferenceable(80) %22, ptr noundef %23, i32 noundef %24)
  br label %26

26:                                               ; preds = %21, %15
  %27 = phi i1 [ false, %15 ], [ %25, %21 ]
  ret i1 %27
}