; Function Attrs: mustprogress uwtable
define noundef zeroext i1 @_ZN6google8protobuf8internal14WireFormatLite9ReadBytesEPNS0_2io16CodedInputStreamEPPNSt7__cxx1112basic_stringIcSt11char_traitsIcESaIcEEE(ptr noundef %0, ptr nocapture noundef %1) local_unnamed_addr #3 align 2 {
  %3 = load ptr, ptr %1, align 8
  %4 = icmp eq ptr %3, @_ZN6google8protobuf8internal26fixed_address_empty_stringE
  br i1 %4, label %5, label %7

5:                                                ; preds = %2
  %6 = tail call noalias noundef nonnull dereferenceable(32) ptr @_Znwm(i64 noundef 32) #14
  tail call void @_ZNSt7__cxx1112basic_stringIcSt11char_traitsIcESaIcEEC1Ev(ptr noundef nonnull align 8 dereferenceable(32) %6) #13
  store ptr %6, ptr %1, align 8
  br label %7

7:                                                ; preds = %5, %2
  %8 = phi ptr [ %6, %5 ], [ %3, %2 ]
  %9 = load ptr, ptr %0, align 8
  %10 = getelementptr inbounds i8, ptr %0, i64 8
  %11 = load ptr, ptr %10, align 8
  %12 = icmp ult ptr %9, %11
  br i1 %12, label %13, label %_ZN6google8protobuf2io16CodedInputStream12ReadVarint32EPj.exit

13:                                               ; preds = %7
  %14 = load i8, ptr %9, align 1
  %15 = zext i8 %14 to i32
  %16 = icmp sgt i8 %14, -1
  br i1 %16, label %_ZN6google8protobuf2io16CodedInputStream12ReadVarint32EPj.exit.thread, label %_ZN6google8protobuf2io16CodedInputStream12ReadVarint32EPj.exit

_ZN6google8protobuf2io16CodedInputStream12ReadVarint32EPj.exit.thread: ; preds = %13
  %17 = getelementptr inbounds i8, ptr %9, i64 1
  store ptr %17, ptr %0, align 8
  br label %21

_ZN6google8protobuf2io16CodedInputStream12ReadVarint32EPj.exit: ; preds = %7, %13
  %.08.i = phi i32 [ %15, %13 ], [ 0, %7 ]
  %18 = tail call noundef i64 @_ZN6google8protobuf2io16CodedInputStream20ReadVarint32FallbackEj(ptr noundef nonnull align 8 dereferenceable(80) %0, i32 noundef %.08.i)
  %19 = trunc i64 %18 to i32
  %20 = icmp sgt i64 %18, -1
  br i1 %20, label %21, label %23

21:                                               ; preds = %_ZN6google8protobuf2io16CodedInputStream12ReadVarint32EPj.exit.thread, %_ZN6google8protobuf2io16CodedInputStream12ReadVarint32EPj.exit
  %.09 = phi i32 [ %15, %_ZN6google8protobuf2io16CodedInputStream12ReadVarint32EPj.exit.thread ], [ %19, %_ZN6google8protobuf2io16CodedInputStream12ReadVarint32EPj.exit ]
  %22 = tail call noundef zeroext i1 @_ZN6google8protobuf2io16CodedInputStream10ReadStringEPNSt7__cxx1112basic_stringIcSt11char_traitsIcESaIcEEEi(ptr noundef nonnull align 8 dereferenceable(80) %0, ptr noundef %8, i32 noundef %.09)
  br label %23

23:                                               ; preds = %21, %_ZN6google8protobuf2io16CodedInputStream12ReadVarint32EPj.exit
  %24 = phi i1 [ false, %_ZN6google8protobuf2io16CodedInputStream12ReadVarint32EPj.exit ], [ %22, %21 ]
  ret i1 %24
}